ccopy_reg
_reconstructor
p0
(cevernote.edam.notestore.ttypes
SyncState
p1
c__builtin__
object
p2
Ntp3
Rp4
(dp5
S'uploaded'
p6
I79201333
sS'fullSyncBefore'
p7
I1337142069000
sS'updateCount'
p8
I41373
sS'currentTime'
p9
I1387442424643
sb.