ccopy_reg
_reconstructor
p0
(cevernote.edam.notestore.ttypes
SyncState
p1
c__builtin__
object
p2
Ntp3
Rp4
(dp5
S'uploaded'
p6
I280658
sS'fullSyncBefore'
p7
L1354453729000L
sS'updateCount'
p8
I189
sS'currentTime'
p9
L1388807102086L
sb.