ccopy_reg
_reconstructor
p0
(cevernote.edam.notestore.ttypes
SyncState
p1
c__builtin__
object
p2
Ntp3
Rp4
(dp5
S'uploaded'
p6
I469
sS'fullSyncBefore'
p7
I1354453729000
sS'updateCount'
p8
I69
sS'currentTime'
p9
I1388483571295
sb.