ccopy_reg
_reconstructor
p0
(cevernote.edam.notestore.ttypes
SyncState
p1
c__builtin__
object
p2
Ntp3
Rp4
(dp5
S'uploaded'
p6
I197778
sS'fullSyncBefore'
p7
I1337142069000
sS'updateCount'
p8
I41465
sS'currentTime'
p9
I1387863411007
sb.